(lp0
(lp1
F-0.0010645986457591754
aF1.570674087700862
aF1.7453293348930207e-05
aF-0.00013962634679144165
aF5.235987801495996e-05
aF0.00019198621667907895
aF-0.00010466223084011408
aF1.5709534532992113
aF0.0
aF-1.7453293348930207e-05
aF0.0
aF0.00010471975602991991
aF-1.7453293348930207e-05
aF-0.04771730118360324
aF-0.00019198621667907895
aF-0.024312436596794308
aa(lp2
F-0.005567604574919656
aF1.5369893609691037
aF1.1762645907920344
aF0.005689773448886487
aF0.032724923474893676
aF-0.06948155658978787
aF0.0
aF1.5709708970043512
aF0.0
aF-1.7453293348930207e-05
aF0.0
aF0.00010471975602991991
aF-0.002967059759599279
aF-0.0788539778022117
aF-0.0002617993819474771
aF-0.026110126508652038
aa(lp3
F0.11955502713000067
aF1.3200099090515518
aF1.4138563769145815
aF0.7254984773174405
aF0.033999013029901215
aF-0.16934929851943228
aF0.001692971504963372
aF1.5706392002905822
aF-1.7453293348930207e-05
aF-1.7453293348930207e-05
aF3.4906586697860414e-05
aF0.00010471975602991991
aF-0.0030543261389752115
aF0.6696304842326766
aF-0.004241150094829788
aF0.3124488501488759
aa(lp4
F-1.072714362865083
aF0.9752027195518318
aF1.860608307678099
aF1.6674352522189289
aF-0.29033552506399835
aF0.8728216859224522
aF0.0017104152101033907
aF1.5707091082691964
aF-1.7453293348930207e-05
aF-3.4906586697860414e-05
aF3.4906586697860414e-05
aF0.00010471975602991991
aF-0.003089232794755315
aF0.6696653716429566
aF-0.004241150094829788
aF0.3123092006392149
aa(lp5
F-0.037472274434068926
aF0.9384461030816943
aF1.758454108794567
aF1.766831747793684
aF-0.8160461541172166
aF0.5057091574232597
aF0.0017278589152434098
aF1.5706916645640565
aF-1.7453293348930207e-05
aF0.0
aF3.4906586697860414e-05
aF5.235987801495996e-05
aF-0.002967059759599279
aF0.6695606428330892
aF-0.004206243439049686
aF0.31232667763386857
aa(lp6
F0.48593455382866246
aF0.9376956242865099
aF0.9896365866068704
aF1.7545097009040507
aF-1.2792390432913108
aF-0.11972958901707696
aF0.0017278589152434098
aF1.5706916645640565
aF-1.7453293348930207e-05
aF-1.7453293348930207e-05
aF3.4906586697860414e-05
aF3.4906586697860414e-05
aF-0.002967059759599279
aF0.6695780865382293
aF-0.004206243439049686
aF0.31229175693407496
aa(lp7
F0.5289394788483438
aF1.152318777850587
aF0.7060729808522391
aF1.7212611999588474
aF-1.2793612823853453
aF-0.6096784004582215
aF0.001692971504963372
aF1.5706916645640565
aF-1.7453293348930207e-05
aF-1.7453293348930207e-05
aF1.7453293348930207e-05
aF3.4906586697860414e-05
aF-0.002967059759599279
aF0.6695780865382293
aF-0.004206243439049686
aF0.31227431322893484
aa(lp8
F0.5289045914380637
aF1.1519521937265376
aF0.6819175771330024
aF1.7194111019495695
aF-1.27955329629994
aF-0.6137799348530526
aF0.0017278589152434098
aF1.5706916645640565
aF0.0
aF0.0
aF1.7453293348930207e-05
aF3.4906586697860414e-05
aF-0.0029845130874893307
aF0.6695780865382293
aF-0.004206243439049686
aF0.31227431322893484
aa(lp9
F0.5338962208482265
aF1.1697895140756702
aF0.5991715641675864
aF1.7537941095191465
aF-1.280949458501414
aF-0.767002378167726
aF0.5157796680587989
aF1.1526503414063018
aF0.6709569381926178
aF1.746708103648718
aF-1.3274799427511697
aF-0.6407103524281519
aF-0.003071779466865263
aF0.6695431991279492
aF-0.004188790111159634
aF0.31232667763386857
aa(lp10
F0.90113095515194
aF1.1983431283351729
aF0.5975483674831831
aF1.766796860383404
aF-1.27955329629994
aF-0.8132012322827393
aF0.8735198336022166
aF1.156804206916553
aF0.6951646730272746
aF1.763707593518912
aF-1.3272879288365749
aF-0.648285114937637
aF-0.0030194194831951087
aF0.6695431991279492
aF-0.004171336783269582
aF0.3123441213390086
aa(lp11
F1.0514037478222689
aF1.2069300917959698
aF0.5840221057276435
aF1.834742488748759
aF-1.279291374406731
acnumpy.core.multiarray
scalar
p12
(cnumpy
dtype
p13
(S'f8'
p14
I0
I1
tp15
Rp16
(I3
S'<'
p17
NNNI-1
I-1
I0
tp18
bS'X\xd7\x1c\x83\xd1\xae\xed\xbf'
p19
tp20
Rp21
aF0.9456891688774102
aF1.1571882347457423
aF0.783094329317448
aF1.8620569341530475
aF-1.3696122164606592
ag12
(g16
S'X\xd7\x1c\x83\xd1\xae\xed\xbf'
p22
tp23
Rp24
aF-0.0030368728110851603
aF0.6696828153480966
aF-0.004171336783269582
aF0.31232667763386857
aa.