(lp0
(lp1
F-6.977482056007604e-05
aF1.5707614393846165
aF0.0
aF-0.0001570796259175572
aF-0.00012217305141068078
aF0.0005410520592757151
aF-6.977482056007604e-05
aF1.5708835453205967
aF0.0
aF-0.00012217305141068078
aF-3.4906586697860414e-05
aF0.00013962634679144165
aF0.0
aF0.0
aF-3.4906586697860414e-05
aF-0.0014137166982765965
aa(lp2
F0.039287351875012436
aF1.4272604661551138
aF1.6712574210154107
aF0.32538172632403234
aF-1.6730028567938486
aF0.00212930171135992
aF0.08902920892523992
aF1.416858292095319
aF1.488783348919525
aF0.3831172278337008
aF-1.444137716931273
aF-0.0021642082371028603
aF3.4906586697860414e-05
aF0.3001093595541028
aF-3.4906586697860414e-05
aF0.4995132465681631
aa(lp3
F-0.9916962088149104
aF1.2850858803065253
aF1.6708909700494157
aF1.940823518659613
aF-1.6726362726697992
aF-0.027942720475546624
aF-0.8629081353436595
aF1.1972086217107991
aF1.6565792755093844
aF1.9367570048331162
aF-1.443998167290153
aF-0.001989675348313833
aF0.0
aF0.30021408836397023
aF-3.4906586697860414e-05
aF0.49939107405315575
aa(lp4
F-0.4665265676476283
aF1.2852778942211203
aF1.6695121183950272
aF1.9407537438390525
aF-1.672549054144099
aF0.4293684463536478
aF-0.42236962571940595
aF1.197505297856234
aF1.6563349304793697
aF1.9376295895642806
aF-1.4441901812047475
aF0.5498834431880811
aF-6.981317339572083e-05
aF0.30017916766417646
aF-3.4906586697860414e-05
aF0.49942596146343576
aa(lp5
F0.06647955818526649
aF1.3936802684961414
aF0.9148666745272146
aF1.469043599445694
aF-1.6579405503005784
aF-0.4895125107531839
aF0.13887586136436203
aF1.4417117103362653
aF0.8328361863676755
aF1.4103656385157601
aF-1.4760598304955623
aF-0.5516811102133983
aF1.7453293348930207e-05
aF0.30016172395903645
aF-3.4906586697860414e-05
aF0.49935615335336214
aa(lp6
F0.40229844584791474
aF1.4015168863198084
aF0.8889136370721742
aF1.5148061611951251
aF-1.6576613178602837
aF-0.6188762930730827
aF0.4820773644638462
aF1.442758998434939
aF0.8493819401671471
aF1.4560059611711567
aF-1.4764264146196118
aF-0.4959702103434353
aF3.4906586697860414e-05
aF0.30017916766417646
aF-3.4906586697860414e-05
aF0.49939107405315575
aa.